target datalayout = "e-m:e-p270:32:32-p271:32:32-p272:64:64-i64:64-i128:128-f80:128-n8:16:32:64-S128"
target triple = "x86_64-unknown-linux-gnu"

%"struct.google::SiteFlag" = type { ptr, ptr, i64, ptr }
%"class.google::LogMessageVoidify" = type { i8 }
%"class.google::LogMessage" = type { ptr, ptr, %"struct.google::LogMessageTime" }
%"struct.google::LogMessageTime" = type { %struct.tm, i64, i32, i64 }
%struct.tm = type { i32, i32, i32, i32, i32, i32, i32, i32, i32, i64, ptr }
%"class.google::LogMessageFatal" = type { %"class.google::LogMessage" }
%"class.proxygen::FlowControlFilter" = type <{ %"class.proxygen::PassThroughHTTPCodecFilter", ptr, %"class.proxygen::Window", %"class.proxygen::Window", i32, i8, [3 x i8] }>
%"class.proxygen::PassThroughHTTPCodecFilter" = type { %"class.proxygen::GenericFilter" }
%"class.proxygen::GenericFilter" = type { %"class.proxygen::HTTPCodec", %"class.proxygen::HTTPCodec::Callback", i8, i8, ptr, ptr, ptr, ptr, ptr, ptr }
%"class.proxygen::HTTPCodec" = type { ptr }
%"class.proxygen::HTTPCodec::Callback" = type { ptr }
%"class.proxygen::Window" = type { i32, i32 }

@_ZN3fLI7FLAGS_vE = external global i32, align 4
@.str = private unnamed_addr constant [141 x i8] c"generated/home/dtcxzyw/WorkSpace/Projects/compilers/llvm-opt-benchmark/bench/proxygen/proxygen/proxygen/lib/http/codec/FlowControlFilter.cpp\00", align 1
@_ZZN8proxygen17FlowControlFilter21ingressBytesProcessedERN5folly10IOBufQueueEjE8vlocal__ = internal global %"struct.google::SiteFlag" zeroinitializer, align 8
@.str.6 = private unnamed_addr constant [11 x i8] c"processed \00", align 1
@.str.7 = private unnamed_addr constant [9 x i8] c" toAck_=\00", align 1
@.str.8 = private unnamed_addr constant [18 x i8] c" bytes, will ack=\00", align 1
@.str.9 = private unnamed_addr constant [40 x i8] c"Check failed: recvWindow_.free(toAck_) \00", align 1

; Function Attrs: mustprogress nounwind uwtable
define linkonce_odr void @_ZN6google17LogMessageVoidifyanERSo(ptr noundef nonnull align 1 dereferenceable(1) %this, ptr noundef nonnull align 8 dereferenceable(8) %0) #5 comdat align 2 {
entry:
  %this.addr = alloca ptr, align 8
  %.addr = alloca ptr, align 8
  store ptr %this, ptr %this.addr, align 8
  store ptr %0, ptr %.addr, align 8
  ret void
}

; Function Attrs: mustprogress nounwind uwtable
define linkonce_odr void @_ZN6google17LogMessageVoidifyC2Ev(ptr noundef nonnull align 1 dereferenceable(1) %this) unnamed_addr #5 comdat align 2 {
entry:
  %this.addr = alloca ptr, align 8
  store ptr %this, ptr %this.addr, align 8
  ret void
}

; Function Attrs: mustprogress uwtable
define noundef zeroext i1 @_ZN8proxygen17FlowControlFilter21ingressBytesProcessedERN5folly10IOBufQueueEj(ptr noundef nonnull align 8 dereferenceable(101) %this, ptr noundef nonnull align 8 dereferenceable(72) %writeBuf, i32 noundef %delta) #4 align 2 personality ptr @__gxx_personality_v0 {
entry:
  %retval = alloca i1, align 1
  %this.addr = alloca ptr, align 8
  %writeBuf.addr = alloca ptr, align 8
  %delta.addr = alloca i32, align 4
  %willAck = alloca i8, align 1
  %verbose_level__ = alloca i32, align 4
  %tmp = alloca i8, align 1
  %ref.tmp = alloca %"class.google::LogMessageVoidify", align 1
  %ref.tmp11 = alloca %"class.google::LogMessage", align 8
  %cleanup.cond = alloca i1, align 1
  %exn.slot = alloca ptr, align 8
  %ehselector.slot = alloca i32, align 4
  %ref.tmp38 = alloca %"class.google::LogMessageVoidify", align 1
  %ref.tmp39 = alloca %"class.google::LogMessageFatal", align 8
  %cleanup.cond40 = alloca i1, align 1
  store ptr %this, ptr %this.addr, align 8
  store ptr %writeBuf, ptr %writeBuf.addr, align 8
  store i32 %delta, ptr %delta.addr, align 4
  %this1 = load ptr, ptr %this.addr, align 8
  %0 = load i32, ptr %delta.addr, align 4
  %toAck_ = getelementptr inbounds %"class.proxygen::FlowControlFilter", ptr %this1, i32 0, i32 4
  %1 = load i32, ptr %toAck_, align 8
  %add = add i32 %1, %0
  store i32 %add, ptr %toAck_, align 8
  %toAck_2 = getelementptr inbounds %"class.proxygen::FlowControlFilter", ptr %this1, i32 0, i32 4
  %2 = load i32, ptr %toAck_2, align 8
  %cmp = icmp sgt i32 %2, 0
  br i1 %cmp, label %land.rhs, label %land.end

land.rhs:                                         ; preds = %entry
  %toAck_3 = getelementptr inbounds %"class.proxygen::FlowControlFilter", ptr %this1, i32 0, i32 4
  %3 = load i32, ptr %toAck_3, align 8
  %recvWindow_ = getelementptr inbounds %"class.proxygen::FlowControlFilter", ptr %this1, i32 0, i32 2
  %call = call noundef i32 @_ZNK8proxygen6Window11getCapacityEv(ptr noundef nonnull align 4 dereferenceable(8) %recvWindow_)
  %div = udiv i32 %call, 2
  %cmp4 = icmp ugt i32 %3, %div
  br label %land.end

land.end:                                         ; preds = %land.rhs, %entry
  %4 = phi i1 [ false, %entry ], [ %cmp4, %land.rhs ]
  %frombool = zext i1 %4 to i8
  store i8 %frombool, ptr %willAck, align 1
  store i32 4, ptr %verbose_level__, align 4
  %5 = load ptr, ptr @_ZZN8proxygen17FlowControlFilter21ingressBytesProcessedERN5folly10IOBufQueueEjE8vlocal__, align 8
  %cmp5 = icmp eq ptr %5, null
  store i1 false, ptr %cleanup.cond, align 1
  br i1 %cmp5, label %cond.true, label %cond.false

cond.true:                                        ; preds = %land.end
  %6 = load i32, ptr %verbose_level__, align 4
  %call6 = call noundef zeroext i1 @_ZN6google11InitVLOG3__EPNS_8SiteFlagEPiPKci(ptr noundef @_ZZN8proxygen17FlowControlFilter21ingressBytesProcessedERN5folly10IOBufQueueEjE8vlocal__, ptr noundef @_ZN3fLI7FLAGS_vE, ptr noundef @.str, i32 noundef %6)
  br label %cond.end

cond.false:                                       ; preds = %land.end
  %7 = load ptr, ptr @_ZZN8proxygen17FlowControlFilter21ingressBytesProcessedERN5folly10IOBufQueueEjE8vlocal__, align 8
  %8 = load i32, ptr %7, align 4
  %9 = load i32, ptr %verbose_level__, align 4
  %cmp7 = icmp sge i32 %8, %9
  br label %cond.end

cond.end:                                         ; preds = %cond.false, %cond.true
  %cond = phi i1 [ %call6, %cond.true ], [ %cmp7, %cond.false ]
  %frombool8 = zext i1 %cond to i8
  store i8 %frombool8, ptr %tmp, align 1
  %10 = load i8, ptr %tmp, align 1
  %tobool = trunc i8 %10 to i1
  br i1 %tobool, label %cond.false10, label %cond.true9

cond.true9:                                       ; preds = %cond.end
  br label %cond.end28

cond.false10:                                     ; preds = %cond.end
  call void @_ZN6google17LogMessageVoidifyC2Ev(ptr noundef nonnull align 1 dereferenceable(1) %ref.tmp)
  call void @_ZN6google10LogMessageC1EPKci(ptr noundef nonnull align 8 dereferenceable(96) %ref.tmp11, ptr noundef @.str, i32 noundef 73)
  store i1 true, ptr %cleanup.cond, align 1
  %call12 = invoke noundef nonnull align 8 dereferenceable(8) ptr @_ZN6google10LogMessage6streamEv(ptr noundef nonnull align 8 dereferenceable(96) %ref.tmp11)
          to label %invoke.cont unwind label %lpad

invoke.cont:                                      ; preds = %cond.false10
  %call14 = invoke noundef nonnull align 8 dereferenceable(8) ptr @_ZStlsISt11char_traitsIcEERSt13basic_ostreamIcT_ES5_PKc(ptr noundef nonnull align 8 dereferenceable(8) %call12, ptr noundef @.str.6)
          to label %invoke.cont13 unwind label %lpad

invoke.cont13:                                    ; preds = %invoke.cont
  %11 = load i32, ptr %delta.addr, align 4
  %call16 = invoke noundef nonnull align 8 dereferenceable(8) ptr @_ZNSolsEj(ptr noundef nonnull align 8 dereferenceable(8) %call14, i32 noundef %11)
          to label %invoke.cont15 unwind label %lpad

invoke.cont15:                                    ; preds = %invoke.cont13
  %call18 = invoke noundef nonnull align 8 dereferenceable(8) ptr @_ZStlsISt11char_traitsIcEERSt13basic_ostreamIcT_ES5_PKc(ptr noundef nonnull align 8 dereferenceable(8) %call16, ptr noundef @.str.7)
          to label %invoke.cont17 unwind label %lpad

invoke.cont17:                                    ; preds = %invoke.cont15
  %toAck_19 = getelementptr inbounds %"class.proxygen::FlowControlFilter", ptr %this1, i32 0, i32 4
  %12 = load i32, ptr %toAck_19, align 8
  %call21 = invoke noundef nonnull align 8 dereferenceable(8) ptr @_ZNSolsEi(ptr noundef nonnull align 8 dereferenceable(8) %call18, i32 noundef %12)
          to label %invoke.cont20 unwind label %lpad

invoke.cont20:                                    ; preds = %invoke.cont17
  %call23 = invoke noundef nonnull align 8 dereferenceable(8) ptr @_ZStlsISt11char_traitsIcEERSt13basic_ostreamIcT_ES5_PKc(ptr noundef nonnull align 8 dereferenceable(8) %call21, ptr noundef @.str.8)
          to label %invoke.cont22 unwind label %lpad

invoke.cont22:                                    ; preds = %invoke.cont20
  %13 = load i8, ptr %willAck, align 1
  %tobool24 = trunc i8 %13 to i1
  %call26 = invoke noundef nonnull align 8 dereferenceable(8) ptr @_ZNSolsEb(ptr noundef nonnull align 8 dereferenceable(8) %call23, i1 noundef zeroext %tobool24)
          to label %invoke.cont25 unwind label %lpad

invoke.cont25:                                    ; preds = %invoke.cont22
  invoke void @_ZN6google17LogMessageVoidifyanERSo(ptr noundef nonnull align 1 dereferenceable(1) %ref.tmp, ptr noundef nonnull align 8 dereferenceable(8) %call26)
          to label %invoke.cont27 unwind label %lpad

invoke.cont27:                                    ; preds = %invoke.cont25
  br label %cond.end28

cond.end28:                                       ; preds = %invoke.cont27, %cond.true9
  %cleanup.is_active = load i1, ptr %cleanup.cond, align 1
  br i1 %cleanup.is_active, label %cleanup.action, label %cleanup.done

cleanup.action:                                   ; preds = %cond.end28
  call void @_ZN6google10LogMessageD1Ev(ptr noundef nonnull align 8 dereferenceable(96) %ref.tmp11) #3
  br label %cleanup.done

cleanup.done:                                     ; preds = %cleanup.action, %cond.end28
  %14 = load i8, ptr %willAck, align 1
  %tobool32 = trunc i8 %14 to i1
  br i1 %tobool32, label %if.then, label %if.end

if.then:                                          ; preds = %cleanup.done
  %recvWindow_33 = getelementptr inbounds %"class.proxygen::FlowControlFilter", ptr %this1, i32 0, i32 2
  %toAck_34 = getelementptr inbounds %"class.proxygen::FlowControlFilter", ptr %this1, i32 0, i32 4
  %15 = load i32, ptr %toAck_34, align 8
  %call35 = call noundef zeroext i1 @_ZN8proxygen6Window4freeEj(ptr noundef nonnull align 4 dereferenceable(8) %recvWindow_33, i32 noundef %15)
  %lnot = xor i1 %call35, true
  store i1 false, ptr %cleanup.cond40, align 1
  br i1 %lnot, label %cond.false37, label %cond.true36

cond.true36:                                      ; preds = %if.then
  br label %cond.end47

cond.false37:                                     ; preds = %if.then
  call void @_ZN6google17LogMessageVoidifyC2Ev(ptr noundef nonnull align 1 dereferenceable(1) %ref.tmp38)
  call void @_ZN6google15LogMessageFatalC1EPKci(ptr noundef nonnull align 8 dereferenceable(96) %ref.tmp39, ptr noundef @.str, i32 noundef 76)
  store i1 true, ptr %cleanup.cond40, align 1
  %call43 = invoke noundef nonnull align 8 dereferenceable(8) ptr @_ZN6google10LogMessage6streamEv(ptr noundef nonnull align 8 dereferenceable(96) %ref.tmp39)
          to label %invoke.cont42 unwind label %lpad41

invoke.cont42:                                    ; preds = %cond.false37
  %call45 = invoke noundef nonnull align 8 dereferenceable(8) ptr @_ZStlsISt11char_traitsIcEERSt13basic_ostreamIcT_ES5_PKc(ptr noundef nonnull align 8 dereferenceable(8) %call43, ptr noundef @.str.9)
          to label %invoke.cont44 unwind label %lpad41

invoke.cont44:                                    ; preds = %invoke.cont42
  invoke void @_ZN6google17LogMessageVoidifyanERSo(ptr noundef nonnull align 1 dereferenceable(1) %ref.tmp38, ptr noundef nonnull align 8 dereferenceable(8) %call45)
          to label %invoke.cont46 unwind label %lpad41

invoke.cont46:                                    ; preds = %invoke.cont44
  br label %cond.end47

cond.end47:                                       ; preds = %invoke.cont46, %cond.true36
  %cleanup.is_active48 = load i1, ptr %cleanup.cond40, align 1
  br i1 %cleanup.is_active48, label %cleanup.action49, label %cleanup.done50

cleanup.action49:                                 ; preds = %cond.end47
  call void @_ZN6google15LogMessageFatalD1Ev(ptr noundef nonnull align 8 dereferenceable(96) %ref.tmp39) #14
  unreachable

lpad:                                             ; preds = %invoke.cont25, %invoke.cont22, %invoke.cont20, %invoke.cont17, %invoke.cont15, %invoke.cont13, %invoke.cont, %cond.false10
  %16 = landingpad { ptr, i32 }
          cleanup
  %17 = extractvalue { ptr, i32 } %16, 0
  store ptr %17, ptr %exn.slot, align 8
  %18 = extractvalue { ptr, i32 } %16, 1
  store i32 %18, ptr %ehselector.slot, align 4
  %cleanup.is_active29 = load i1, ptr %cleanup.cond, align 1
  br i1 %cleanup.is_active29, label %cleanup.action30, label %cleanup.done31

cleanup.action30:                                 ; preds = %lpad
  call void @_ZN6google10LogMessageD1Ev(ptr noundef nonnull align 8 dereferenceable(96) %ref.tmp11) #3
  br label %cleanup.done31

cleanup.done31:                                   ; preds = %cleanup.action30, %lpad
  br label %eh.resume

lpad41:                                           ; preds = %invoke.cont44, %invoke.cont42, %cond.false37
  %19 = landingpad { ptr, i32 }
          cleanup
  %20 = extractvalue { ptr, i32 } %19, 0
  store ptr %20, ptr %exn.slot, align 8
  %21 = extractvalue { ptr, i32 } %19, 1
  store i32 %21, ptr %ehselector.slot, align 4
  %cleanup.is_active51 = load i1, ptr %cleanup.cond40, align 1
  br i1 %cleanup.is_active51, label %cleanup.action52, label %cleanup.done53

22:                                               ; No predecessors!
  br label %cleanup.done50

cleanup.done50:                                   ; preds = %22, %cond.end47
  %call_ = getelementptr inbounds %"class.proxygen::GenericFilter", ptr %this1, i32 0, i32 4
  %23 = load ptr, ptr %call_, align 8
  %24 = load ptr, ptr %writeBuf.addr, align 8
  %toAck_54 = getelementptr inbounds %"class.proxygen::FlowControlFilter", ptr %this1, i32 0, i32 4
  %25 = load i32, ptr %toAck_54, align 8
  %vtable = load ptr, ptr %23, align 8
  %vfn = getelementptr inbounds ptr, ptr %vtable, i64 39
  %26 = load ptr, ptr %vfn, align 8
  %call55 = call noundef i64 %26(ptr noundef nonnull align 8 dereferenceable(8) %23, ptr noundef nonnull align 8 dereferenceable(72) %24, i64 noundef 0, i32 noundef %25)
  %toAck_56 = getelementptr inbounds %"class.proxygen::FlowControlFilter", ptr %this1, i32 0, i32 4
  store i32 0, ptr %toAck_56, align 8
  store i1 true, ptr %retval, align 1
  br label %return

cleanup.action52:                                 ; preds = %lpad41
  call void @_ZN6google15LogMessageFatalD1Ev(ptr noundef nonnull align 8 dereferenceable(96) %ref.tmp39) #14
  unreachable

27:                                               ; No predecessors!
  br label %cleanup.done53

cleanup.done53:                                   ; preds = %27, %lpad41
  br label %eh.resume

if.end:                                           ; preds = %cleanup.done
  store i1 false, ptr %retval, align 1
  br label %return

return:                                           ; preds = %if.end, %cleanup.done50
  %28 = load i1, ptr %retval, align 1
  ret i1 %28

eh.resume:                                        ; preds = %cleanup.done53, %cleanup.done31
  %exn = load ptr, ptr %exn.slot, align 8
  %sel = load i32, ptr %ehselector.slot, align 4
  %lpad.val = insertvalue { ptr, i32 } poison, ptr %exn, 0
  %lpad.val57 = insertvalue { ptr, i32 } %lpad.val, i32 %sel, 1
  resume { ptr, i32 } %lpad.val57
}