; Function Attrs: mustprogress uwtable
define noundef zeroext i1 @_ZN8proxygen17FlowControlFilter21ingressBytesProcessedERN5folly10IOBufQueueEj(ptr noundef nonnull align 8 dereferenceable(101) %this, ptr noundef nonnull align 8 dereferenceable(72) %writeBuf, i32 noundef %delta) local_unnamed_addr #3 align 2 personality ptr @__gxx_personality_v0 {
entry:
  %ref.tmp11 = alloca %"class.google::LogMessage", align 8
  %ref.tmp39 = alloca %"class.google::LogMessageFatal", align 8
  %toAck_ = getelementptr inbounds i8, ptr %this, i64 96
  %0 = load i32, ptr %toAck_, align 8
  %add = add i32 %0, %delta
  store i32 %add, ptr %toAck_, align 8
  %cmp = icmp sgt i32 %add, 0
  br i1 %cmp, label %land.rhs, label %land.end

land.rhs:                                         ; preds = %entry
  %recvWindow_ = getelementptr inbounds i8, ptr %this, i64 80
  %call = tail call noundef i32 @_ZNK8proxygen6Window11getCapacityEv(ptr noundef nonnull align 4 dereferenceable(8) %recvWindow_)
  %div4 = lshr i32 %call, 1
  %cmp4 = icmp ugt i32 %add, %div4
  br label %land.end

land.end:                                         ; preds = %land.rhs, %entry
  %1 = phi i1 [ false, %entry ], [ %cmp4, %land.rhs ]
  %2 = load ptr, ptr @_ZZN8proxygen17FlowControlFilter21ingressBytesProcessedERN5folly10IOBufQueueEjE8vlocal__, align 8
  %cmp5 = icmp eq ptr %2, null
  br i1 %cmp5, label %cond.true, label %cond.end

cond.true:                                        ; preds = %land.end
  %call6 = tail call noundef zeroext i1 @_ZN6google11InitVLOG3__EPNS_8SiteFlagEPiPKci(ptr noundef nonnull @_ZZN8proxygen17FlowControlFilter21ingressBytesProcessedERN5folly10IOBufQueueEjE8vlocal__, ptr noundef nonnull @_ZN3fLI7FLAGS_vE, ptr noundef nonnull @.str, i32 noundef 4)
  br i1 %call6, label %cond.false10, label %cleanup.done

cond.end:                                         ; preds = %land.end
  %3 = load i32, ptr %2, align 4
  %cmp7 = icmp sgt i32 %3, 3
  br i1 %cmp7, label %cond.false10, label %cleanup.done

cond.false10:                                     ; preds = %cond.true, %cond.end
  call void @_ZN6google10LogMessageC1EPKci(ptr noundef nonnull align 8 dereferenceable(96) %ref.tmp11, ptr noundef nonnull @.str, i32 noundef 73)
  %call12 = invoke noundef nonnull align 8 dereferenceable(8) ptr @_ZN6google10LogMessage6streamEv(ptr noundef nonnull align 8 dereferenceable(96) %ref.tmp11)
          to label %invoke.cont unwind label %lpad

invoke.cont:                                      ; preds = %cond.false10
  %call14 = invoke noundef nonnull align 8 dereferenceable(8) ptr @_ZStlsISt11char_traitsIcEERSt13basic_ostreamIcT_ES5_PKc(ptr noundef nonnull align 8 dereferenceable(8) %call12, ptr noundef nonnull @.str.6)
          to label %invoke.cont13 unwind label %lpad

invoke.cont13:                                    ; preds = %invoke.cont
  %call16 = invoke noundef nonnull align 8 dereferenceable(8) ptr @_ZNSolsEj(ptr noundef nonnull align 8 dereferenceable(8) %call14, i32 noundef %delta)
          to label %invoke.cont15 unwind label %lpad

invoke.cont15:                                    ; preds = %invoke.cont13
  %call18 = invoke noundef nonnull align 8 dereferenceable(8) ptr @_ZStlsISt11char_traitsIcEERSt13basic_ostreamIcT_ES5_PKc(ptr noundef nonnull align 8 dereferenceable(8) %call16, ptr noundef nonnull @.str.7)
          to label %invoke.cont17 unwind label %lpad

invoke.cont17:                                    ; preds = %invoke.cont15
  %4 = load i32, ptr %toAck_, align 8
  %call21 = invoke noundef nonnull align 8 dereferenceable(8) ptr @_ZNSolsEi(ptr noundef nonnull align 8 dereferenceable(8) %call18, i32 noundef %4)
          to label %invoke.cont20 unwind label %lpad

invoke.cont20:                                    ; preds = %invoke.cont17
  %call23 = invoke noundef nonnull align 8 dereferenceable(8) ptr @_ZStlsISt11char_traitsIcEERSt13basic_ostreamIcT_ES5_PKc(ptr noundef nonnull align 8 dereferenceable(8) %call21, ptr noundef nonnull @.str.8)
          to label %invoke.cont22 unwind label %lpad

invoke.cont22:                                    ; preds = %invoke.cont20
  %call26 = invoke noundef nonnull align 8 dereferenceable(8) ptr @_ZNSolsEb(ptr noundef nonnull align 8 dereferenceable(8) %call23, i1 noundef zeroext %1)
          to label %cleanup.action unwind label %lpad

cleanup.action:                                   ; preds = %invoke.cont22
  call void @_ZN6google10LogMessageD1Ev(ptr noundef nonnull align 8 dereferenceable(96) %ref.tmp11) #16
  br label %cleanup.done

cleanup.done:                                     ; preds = %cond.true, %cond.end, %cleanup.action
  br i1 %1, label %if.then, label %return

if.then:                                          ; preds = %cleanup.done
  %recvWindow_33 = getelementptr inbounds i8, ptr %this, i64 80
  %5 = load i32, ptr %toAck_, align 8
  %call35 = call noundef zeroext i1 @_ZN8proxygen6Window4freeEj(ptr noundef nonnull align 4 dereferenceable(8) %recvWindow_33, i32 noundef %5)
  br i1 %call35, label %cleanup.done50, label %cond.false37

cond.false37:                                     ; preds = %if.then
  call void @_ZN6google15LogMessageFatalC1EPKci(ptr noundef nonnull align 8 dereferenceable(96) %ref.tmp39, ptr noundef nonnull @.str, i32 noundef 76)
  %call43 = invoke noundef nonnull align 8 dereferenceable(8) ptr @_ZN6google10LogMessage6streamEv(ptr noundef nonnull align 8 dereferenceable(96) %ref.tmp39)
          to label %invoke.cont42 unwind label %lpad41

invoke.cont42:                                    ; preds = %cond.false37
  %call45 = invoke noundef nonnull align 8 dereferenceable(8) ptr @_ZStlsISt11char_traitsIcEERSt13basic_ostreamIcT_ES5_PKc(ptr noundef nonnull align 8 dereferenceable(8) %call43, ptr noundef nonnull @.str.9)
          to label %cleanup.action49 unwind label %lpad41

cleanup.action49:                                 ; preds = %invoke.cont42
  call void @_ZN6google15LogMessageFatalD1Ev(ptr noundef nonnull align 8 dereferenceable(96) %ref.tmp39) #17
  unreachable

lpad:                                             ; preds = %invoke.cont22, %invoke.cont20, %invoke.cont17, %invoke.cont15, %invoke.cont13, %invoke.cont, %cond.false10
  %6 = landingpad { ptr, i32 }
          cleanup
  call void @_ZN6google10LogMessageD1Ev(ptr noundef nonnull align 8 dereferenceable(96) %ref.tmp11) #16
  resume { ptr, i32 } %6

lpad41:                                           ; preds = %invoke.cont42, %cond.false37
  %7 = landingpad { ptr, i32 }
          cleanup
  call void @_ZN6google15LogMessageFatalD1Ev(ptr noundef nonnull align 8 dereferenceable(96) %ref.tmp39) #17
  unreachable

cleanup.done50:                                   ; preds = %if.then
  %call_ = getelementptr inbounds i8, ptr %this, i64 24
  %8 = load ptr, ptr %call_, align 8
  %9 = load i32, ptr %toAck_, align 8
  %vtable = load ptr, ptr %8, align 8
  %vfn = getelementptr inbounds i8, ptr %vtable, i64 312
  %10 = load ptr, ptr %vfn, align 8
  %call55 = call noundef i64 %10(ptr noundef nonnull align 8 dereferenceable(8) %8, ptr noundef nonnull align 8 dereferenceable(72) %writeBuf, i64 noundef 0, i32 noundef %9)
  store i32 0, ptr %toAck_, align 8
  br label %return

return:                                           ; preds = %cleanup.done, %cleanup.done50
  ret i1 %1
}